target datalayout = "e-m:e-p270:32:32-p271:32:32-p272:64:64-i64:64-i128:128-f80:128-n8:16:32:64-S128"
target triple = "x86_64-pc-linux-gnu"

%struct._object = type { %union.anon, ptr }
%union.anon = type { i64 }
%struct._typeobject = type { %struct.PyVarObject, ptr, i64, i64, ptr, i64, ptr, ptr, ptr, ptr, ptr, ptr, ptr, ptr, ptr, ptr, ptr, ptr, ptr, i64, ptr, ptr, ptr, ptr, i64, ptr, ptr, ptr, ptr, ptr, ptr, ptr, ptr, ptr, i64, ptr, ptr, ptr, ptr, ptr, ptr, ptr, ptr, ptr, ptr, ptr, i32, ptr, ptr, i8, i16 }
%struct.PyVarObject = type { %struct._object, i64 }
%struct._longobject = type { %struct._object, %struct._PyLongValue }
%struct._PyLongValue = type { i64, [1 x i32] }
%struct._dictvalues = type { i8, i8, i8, i8, [1 x ptr] }

@_Py_TrueStruct = external global %struct._longobject, align 8
@_Py_FalseStruct = external global %struct._longobject, align 8
@.str.226 = private unnamed_addr constant [75 x i8] c"tp->tp_basicsize > 0 && (size_t)tp->tp_basicsize % sizeof(PyObject *) == 0\00", align 1
@.str.227 = private unnamed_addr constant [44 x i8] c"../cpython/Include/internal/pycore_object.h\00", align 1
@__PRETTY_FUNCTION__._PyObject_InlineValues = private unnamed_addr constant [49 x i8] c"PyDictValues *_PyObject_InlineValues(PyObject *)\00", align 1
@.str.228 = private unnamed_addr constant [50 x i8] c"Py_TYPE(obj)->tp_flags & Py_TPFLAGS_INLINE_VALUES\00", align 1
@.str.229 = private unnamed_addr constant [49 x i8] c"Py_TYPE(obj)->tp_flags & Py_TPFLAGS_MANAGED_DICT\00", align 1

; Function Attrs: inlinehint nounwind uwtable
define internal ptr @_PyObject_InlineValues(ptr noundef %0) #3 {
  %2 = alloca ptr, align 8
  %3 = alloca ptr, align 8
  store ptr %0, ptr %2, align 8, !tbaa !3
  call void @llvm.lifetime.start.p0(i64 8, ptr %3) #10
  %4 = load ptr, ptr %2, align 8, !tbaa !3
  %5 = call ptr @_Py_TYPE(ptr noundef %4)
  store ptr %5, ptr %3, align 8, !tbaa !145
  %6 = load ptr, ptr %3, align 8, !tbaa !145
  %7 = getelementptr inbounds nuw %struct._typeobject, ptr %6, i32 0, i32 2
  %8 = load i64, ptr %7, align 8, !tbaa !275
  %9 = icmp sgt i64 %8, 0
  br i1 %9, label %10, label %17

10:                                               ; preds = %1
  %11 = load ptr, ptr %3, align 8, !tbaa !145
  %12 = getelementptr inbounds nuw %struct._typeobject, ptr %11, i32 0, i32 2
  %13 = load i64, ptr %12, align 8, !tbaa !275
  %14 = urem i64 %13, 8
  %15 = icmp eq i64 %14, 0
  br i1 %15, label %16, label %17

16:                                               ; preds = %10
  br label %19

17:                                               ; preds = %10, %1
  call void @__assert_fail(ptr noundef @.str.226, ptr noundef @.str.227, i32 noundef 940, ptr noundef @__PRETTY_FUNCTION__._PyObject_InlineValues) #11
  unreachable

18:                                               ; No predecessors!
  br label %19

19:                                               ; preds = %18, %16
  %20 = load ptr, ptr %2, align 8, !tbaa !3
  %21 = call ptr @_Py_TYPE(ptr noundef %20)
  %22 = getelementptr inbounds nuw %struct._typeobject, ptr %21, i32 0, i32 19
  %23 = load i64, ptr %22, align 8, !tbaa !249
  %24 = and i64 %23, 4
  %25 = icmp ne i64 %24, 0
  br i1 %25, label %26, label %27

26:                                               ; preds = %19
  br label %29

27:                                               ; preds = %19
  call void @__assert_fail(ptr noundef @.str.228, ptr noundef @.str.227, i32 noundef 941, ptr noundef @__PRETTY_FUNCTION__._PyObject_InlineValues) #11
  unreachable

28:                                               ; No predecessors!
  br label %29

29:                                               ; preds = %28, %26
  %30 = load ptr, ptr %2, align 8, !tbaa !3
  %31 = call ptr @_Py_TYPE(ptr noundef %30)
  %32 = getelementptr inbounds nuw %struct._typeobject, ptr %31, i32 0, i32 19
  %33 = load i64, ptr %32, align 8, !tbaa !249
  %34 = and i64 %33, 16
  %35 = icmp ne i64 %34, 0
  br i1 %35, label %36, label %37

36:                                               ; preds = %29
  br label %39

37:                                               ; preds = %29
  call void @__assert_fail(ptr noundef @.str.229, ptr noundef @.str.227, i32 noundef 942, ptr noundef @__PRETTY_FUNCTION__._PyObject_InlineValues) #11
  unreachable

38:                                               ; No predecessors!
  br label %39

39:                                               ; preds = %38, %36
  %40 = load ptr, ptr %2, align 8, !tbaa !3
  %41 = load ptr, ptr %3, align 8, !tbaa !145
  %42 = getelementptr inbounds nuw %struct._typeobject, ptr %41, i32 0, i32 2
  %43 = load i64, ptr %42, align 8, !tbaa !275
  %44 = getelementptr i8, ptr %40, i64 %43
  call void @llvm.lifetime.end.p0(i64 8, ptr %3) #10
  ret ptr %44
}

; Function Attrs: inlinehint nounwind uwtable
define internal ptr @_Py_TYPE(ptr noundef %0) #3 {
  %2 = alloca ptr, align 8
  store ptr %0, ptr %2, align 8, !tbaa !3
  %3 = load ptr, ptr %2, align 8, !tbaa !3
  %4 = getelementptr inbounds nuw %struct._object, ptr %3, i32 0, i32 1
  %5 = load ptr, ptr %4, align 8, !tbaa !255
  ret ptr %5
}

; Function Attrs: nounwind uwtable
define internal ptr @has_inline_values(ptr noundef %0, ptr noundef %1) #0 {
  %3 = alloca ptr, align 8
  %4 = alloca ptr, align 8
  %5 = alloca ptr, align 8
  store ptr %0, ptr %4, align 8, !tbaa !3
  store ptr %1, ptr %5, align 8, !tbaa !3
  %6 = load ptr, ptr %5, align 8, !tbaa !3
  %7 = call ptr @_Py_TYPE(ptr noundef %6)
  %8 = getelementptr inbounds nuw %struct._typeobject, ptr %7, i32 0, i32 19
  %9 = load i64, ptr %8, align 8, !tbaa !249
  %10 = and i64 %9, 4
  %11 = icmp ne i64 %10, 0
  br i1 %11, label %12, label %20

12:                                               ; preds = %2
  %13 = load ptr, ptr %5, align 8, !tbaa !3
  %14 = call ptr @_PyObject_InlineValues(ptr noundef %13)
  %15 = getelementptr inbounds nuw %struct._dictvalues, ptr %14, i32 0, i32 3
  %16 = load i8, ptr %15, align 1, !tbaa !148
  %17 = zext i8 %16 to i32
  %18 = icmp ne i32 %17, 0
  br i1 %18, label %19, label %20

19:                                               ; preds = %12
  store ptr @_Py_TrueStruct, ptr %3, align 8
  br label %21

20:                                               ; preds = %12, %2
  store ptr @_Py_FalseStruct, ptr %3, align 8
  br label %21

21:                                               ; preds = %20, %19
  %22 = load ptr, ptr %3, align 8
  ret ptr %22
}