; Function Attrs: nounwind uwtable
define internal noundef nonnull ptr @has_inline_values(ptr readnone captures(none) %0, ptr noundef readonly captures(none) %1) #0 {
  %3 = getelementptr i8, ptr %1, i64 8
  %.val = load ptr, ptr %3, align 8, !tbaa !46
  %4 = getelementptr inbounds nuw i8, ptr %.val, i64 168
  %5 = load i64, ptr %4, align 8, !tbaa !49
  %6 = and i64 %5, 4
  %.not = icmp eq i64 %6, 0
  br i1 %.not, label %20, label %7

7:                                                ; preds = %2
  %8 = getelementptr inbounds nuw i8, ptr %.val, i64 32
  %9 = load i64, ptr %8, align 8, !tbaa !157
  %10 = icmp sgt i64 %9, 0
  %11 = and i64 %9, 7
  %12 = icmp eq i64 %11, 0
  %or.cond.i = and i1 %10, %12
  br i1 %or.cond.i, label %14, label %13

13:                                               ; preds = %7
  tail call void @__assert_fail(ptr noundef nonnull @.str.226, ptr noundef nonnull @.str.227, i32 noundef 940, ptr noundef nonnull @__PRETTY_FUNCTION__._PyObject_InlineValues) #12
  unreachable

14:                                               ; preds = %7
  %15 = and i64 %5, 16
  %.not7.i = icmp eq i64 %15, 0
  br i1 %.not7.i, label %16, label %_PyObject_InlineValues.exit

16:                                               ; preds = %14
  tail call void @__assert_fail(ptr noundef nonnull @.str.229, ptr noundef nonnull @.str.227, i32 noundef 942, ptr noundef nonnull @__PRETTY_FUNCTION__._PyObject_InlineValues) #12
  unreachable

_PyObject_InlineValues.exit:                      ; preds = %14
  %17 = getelementptr i8, ptr %1, i64 %9
  %18 = getelementptr inbounds nuw i8, ptr %17, i64 3
  %19 = load i8, ptr %18, align 1, !tbaa !158
  %.not3 = icmp eq i8 %19, 0
  br i1 %.not3, label %20, label %21

20:                                               ; preds = %_PyObject_InlineValues.exit, %2
  br label %21

21:                                               ; preds = %_PyObject_InlineValues.exit, %20
  %.0 = phi ptr [ @_Py_FalseStruct, %20 ], [ @_Py_TrueStruct, %_PyObject_InlineValues.exit ]
  ret ptr %.0
}